target datalayout = "e-m:e-p270:32:32-p271:32:32-p272:64:64-i64:64-i128:128-f80:128-n8:16:32:64-S128"
target triple = "x86_64-pc-linux-gnu"

%struct.Vec_Int_t_ = type { i32, i32, ptr }
%struct.Hash_IntMan_t_ = type { ptr, ptr, i32 }
%struct.Hash_IntObj_t_ = type { i32, i32, i32, i32 }

@.str = private unnamed_addr constant [52 x i8] c"Statistics for pairs appearing less than 20 times:\0A\00", align 1
@.str.1 = private unnamed_addr constant [21 x i8] c"%3d : %7d  %7.2f %%\0A\00", align 1
@.str.2 = private unnamed_addr constant [91 x i8] c"Pairs:  Total = %8d    Init = %8d %7.2f %%    Final = %8d %7.2f %%    Real = %8d %7.2f %%\0A\00", align 1

; Function Attrs: inlinehint nounwind uwtable
define internal ptr @Vec_IntEntryP(ptr noundef %0, i32 noundef %1) #3 {
  %3 = alloca ptr, align 8
  %4 = alloca i32, align 4
  store ptr %0, ptr %3, align 8, !tbaa !48
  store i32 %1, ptr %4, align 4, !tbaa !42
  %5 = load ptr, ptr %3, align 8, !tbaa !48
  %6 = getelementptr inbounds nuw %struct.Vec_Int_t_, ptr %5, i32 0, i32 2
  %7 = load ptr, ptr %6, align 8, !tbaa !50
  %8 = load i32, ptr %4, align 4, !tbaa !42
  %9 = sext i32 %8 to i64
  %10 = getelementptr inbounds i32, ptr %7, i64 %9
  ret ptr %10
}

; Function Attrs: inlinehint nounwind uwtable
define internal ptr @Hash_IntObj(ptr noundef %0, i32 noundef %1) #3 {
  %3 = alloca ptr, align 8
  %4 = alloca i32, align 4
  store ptr %0, ptr %3, align 8, !tbaa !43
  store i32 %1, ptr %4, align 4, !tbaa !42
  %5 = load i32, ptr %4, align 4, !tbaa !42
  %6 = icmp ne i32 %5, 0
  br i1 %6, label %7, label %14

7:                                                ; preds = %2
  %8 = load ptr, ptr %3, align 8, !tbaa !43
  %9 = getelementptr inbounds nuw %struct.Hash_IntMan_t_, ptr %8, i32 0, i32 1
  %10 = load ptr, ptr %9, align 8, !tbaa !46
  %11 = load i32, ptr %4, align 4, !tbaa !42
  %12 = mul nsw i32 4, %11
  %13 = call ptr @Vec_IntEntryP(ptr noundef %10, i32 noundef %12)
  br label %15

14:                                               ; preds = %2
  br label %15

15:                                               ; preds = %14, %7
  %16 = phi ptr [ %13, %7 ], [ null, %14 ]
  ret ptr %16
}

; Function Attrs: inlinehint nounwind uwtable
define internal i32 @Vec_IntSize(ptr noundef %0) #3 {
  %2 = alloca ptr, align 8
  store ptr %0, ptr %2, align 8, !tbaa !48
  %3 = load ptr, ptr %2, align 8, !tbaa !48
  %4 = getelementptr inbounds nuw %struct.Vec_Int_t_, ptr %3, i32 0, i32 1
  %5 = load i32, ptr %4, align 4, !tbaa !49
  ret i32 %5
}

; Function Attrs: inlinehint nounwind uwtable
define internal i32 @Abc_MaxInt(i32 noundef %0, i32 noundef %1) #3 {
  %3 = alloca i32, align 4
  %4 = alloca i32, align 4
  store i32 %0, ptr %3, align 4, !tbaa !42
  store i32 %1, ptr %4, align 4, !tbaa !42
  %5 = load i32, ptr %3, align 4, !tbaa !42
  %6 = load i32, ptr %4, align 4, !tbaa !42
  %7 = icmp sgt i32 %5, %6
  br i1 %7, label %8, label %10

8:                                                ; preds = %2
  %9 = load i32, ptr %3, align 4, !tbaa !42
  br label %12

10:                                               ; preds = %2
  %11 = load i32, ptr %4, align 4, !tbaa !42
  br label %12

12:                                               ; preds = %10, %8
  %13 = phi i32 [ %9, %8 ], [ %11, %10 ]
  ret i32 %13
}

; Function Attrs: inlinehint nounwind uwtable
define internal i32 @Abc_MinInt(i32 noundef %0, i32 noundef %1) #3 {
  %3 = alloca i32, align 4
  %4 = alloca i32, align 4
  store i32 %0, ptr %3, align 4, !tbaa !42
  store i32 %1, ptr %4, align 4, !tbaa !42
  %5 = load i32, ptr %3, align 4, !tbaa !42
  %6 = load i32, ptr %4, align 4, !tbaa !42
  %7 = icmp slt i32 %5, %6
  br i1 %7, label %8, label %10

8:                                                ; preds = %2
  %9 = load i32, ptr %3, align 4, !tbaa !42
  br label %12

10:                                               ; preds = %2
  %11 = load i32, ptr %4, align 4, !tbaa !42
  br label %12

12:                                               ; preds = %10, %8
  %13 = phi i32 [ %9, %8 ], [ %11, %10 ]
  ret i32 %13
}

; Function Attrs: inlinehint nounwind uwtable
define internal i32 @Hash_IntObjData2(ptr noundef %0, i32 noundef %1) #3 {
  %3 = alloca ptr, align 8
  %4 = alloca i32, align 4
  store ptr %0, ptr %3, align 8, !tbaa !43
  store i32 %1, ptr %4, align 4, !tbaa !42
  %5 = load ptr, ptr %3, align 8, !tbaa !43
  %6 = load i32, ptr %4, align 4, !tbaa !42
  %7 = call ptr @Hash_IntObj(ptr noundef %5, i32 noundef %6)
  %8 = getelementptr inbounds nuw %struct.Hash_IntObj_t_, ptr %7, i32 0, i32 2
  %9 = load i32, ptr %8, align 4, !tbaa !63
  ret i32 %9
}

; Function Attrs: inlinehint nounwind uwtable
define internal i32 @Hash_IntManEntryNum(ptr noundef %0) #3 {
  %2 = alloca ptr, align 8
  store ptr %0, ptr %2, align 8, !tbaa !43
  %3 = load ptr, ptr %2, align 8, !tbaa !43
  %4 = getelementptr inbounds nuw %struct.Hash_IntMan_t_, ptr %3, i32 0, i32 1
  %5 = load ptr, ptr %4, align 8, !tbaa !46
  %6 = call i32 @Vec_IntSize(ptr noundef %5)
  %7 = sdiv i32 %6, 4
  %8 = sub nsw i32 %7, 1
  ret i32 %8
}

; Function Attrs: nounwind uwtable
define i32 @Unm_ManPrintPairStats(ptr noundef %0, i32 noundef %1, i32 noundef %2, i32 noundef %3, i32 noundef %4) #0 {
  %6 = alloca ptr, align 8
  %7 = alloca i32, align 4
  %8 = alloca i32, align 4
  %9 = alloca i32, align 4
  %10 = alloca i32, align 4
  %11 = alloca i32, align 4
  %12 = alloca i32, align 4
  %13 = alloca i32, align 4
  %14 = alloca i32, align 4
  %15 = alloca i32, align 4
  %16 = alloca [21 x i32], align 16
  store ptr %0, ptr %6, align 8, !tbaa !43
  store i32 %1, ptr %7, align 4, !tbaa !42
  store i32 %2, ptr %8, align 4, !tbaa !42
  store i32 %3, ptr %9, align 4, !tbaa !42
  store i32 %4, ptr %10, align 4, !tbaa !42
  call void @llvm.lifetime.start.p0(i64 4, ptr %11) #11
  call void @llvm.lifetime.start.p0(i64 4, ptr %12) #11
  call void @llvm.lifetime.start.p0(i64 4, ptr %13) #11
  call void @llvm.lifetime.start.p0(i64 4, ptr %14) #11
  store i32 0, ptr %14, align 4, !tbaa !42
  call void @llvm.lifetime.start.p0(i64 4, ptr %15) #11
  store i32 0, ptr %15, align 4, !tbaa !42
  call void @llvm.lifetime.start.p0(i64 84, ptr %16) #11
  call void @llvm.memset.p0.i64(ptr align 16 %16, i8 0, i64 84, i1 false)
  %17 = load ptr, ptr %6, align 8, !tbaa !43
  %18 = call i32 @Hash_IntManEntryNum(ptr noundef %17)
  store i32 %18, ptr %12, align 4, !tbaa !42
  store i32 1, ptr %11, align 4, !tbaa !42
  br label %19

19:                                               ; preds = %41, %5
  %20 = load i32, ptr %11, align 4, !tbaa !42
  %21 = load i32, ptr %12, align 4, !tbaa !42
  %22 = icmp sle i32 %20, %21
  br i1 %22, label %23, label %44

23:                                               ; preds = %19
  %24 = load ptr, ptr %6, align 8, !tbaa !43
  %25 = load i32, ptr %11, align 4, !tbaa !42
  %26 = call i32 @Hash_IntObjData2(ptr noundef %24, i32 noundef %25)
  %27 = call i32 @Abc_MinInt(i32 noundef 20, i32 noundef %26)
  store i32 %27, ptr %13, align 4, !tbaa !42
  %28 = load i32, ptr %13, align 4, !tbaa !42
  %29 = load i32, ptr %15, align 4, !tbaa !42
  %30 = add nsw i32 %29, %28
  store i32 %30, ptr %15, align 4, !tbaa !42
  %31 = load i32, ptr %13, align 4, !tbaa !42
  %32 = sext i32 %31 to i64
  %33 = getelementptr inbounds [21 x i32], ptr %16, i64 0, i64 %32
  %34 = load i32, ptr %33, align 4, !tbaa !42
  %35 = add nsw i32 %34, 1
  store i32 %35, ptr %33, align 4, !tbaa !42
  %36 = load i32, ptr %13, align 4, !tbaa !42
  %37 = icmp sgt i32 %36, 1
  %38 = zext i1 %37 to i32
  %39 = load i32, ptr %14, align 4, !tbaa !42
  %40 = add nsw i32 %39, %38
  store i32 %40, ptr %14, align 4, !tbaa !42
  br label %41

41:                                               ; preds = %23
  %42 = load i32, ptr %11, align 4, !tbaa !42
  %43 = add nsw i32 %42, 1
  store i32 %43, ptr %11, align 4, !tbaa !42
  br label %19, !llvm.loop !60

44:                                               ; preds = %19
  %45 = call i32 (ptr, ...) @printf(ptr noundef @.str)
  store i32 0, ptr %11, align 4, !tbaa !42
  br label %46

46:                                               ; preds = %76, %44
  %47 = load i32, ptr %11, align 4, !tbaa !42
  %48 = icmp slt i32 %47, 21
  br i1 %48, label %49, label %79

49:                                               ; preds = %46
  %50 = load i32, ptr %11, align 4, !tbaa !42
  %51 = sext i32 %50 to i64
  %52 = getelementptr inbounds [21 x i32], ptr %16, i64 0, i64 %51
  %53 = load i32, ptr %52, align 4, !tbaa !42
  %54 = icmp sgt i32 %53, 0
  br i1 %54, label %55, label %75

55:                                               ; preds = %49
  %56 = load i32, ptr %11, align 4, !tbaa !42
  %57 = load i32, ptr %11, align 4, !tbaa !42
  %58 = sext i32 %57 to i64
  %59 = getelementptr inbounds [21 x i32], ptr %16, i64 0, i64 %58
  %60 = load i32, ptr %59, align 4, !tbaa !42
  %61 = load i32, ptr %11, align 4, !tbaa !42
  %62 = sext i32 %61 to i64
  %63 = getelementptr inbounds [21 x i32], ptr %16, i64 0, i64 %62
  %64 = load i32, ptr %63, align 4, !tbaa !42
  %65 = sitofp i32 %64 to double
  %66 = fmul double 1.000000e+02, %65
  %67 = load i32, ptr %11, align 4, !tbaa !42
  %68 = sitofp i32 %67 to double
  %69 = fmul double %66, %68
  %70 = load i32, ptr %15, align 4, !tbaa !42
  %71 = call i32 @Abc_MaxInt(i32 noundef %70, i32 noundef 1)
  %72 = sitofp i32 %71 to double
  %73 = fdiv double %69, %72
  %74 = call i32 (ptr, ...) @printf(ptr noundef @.str.1, i32 noundef %56, i32 noundef %60, double noundef %73)
  br label %75

75:                                               ; preds = %55, %49
  br label %76

76:                                               ; preds = %75
  %77 = load i32, ptr %11, align 4, !tbaa !42
  %78 = add nsw i32 %77, 1
  store i32 %78, ptr %11, align 4, !tbaa !42
  br label %46, !llvm.loop !62

79:                                               ; preds = %46
  %80 = load i32, ptr %7, align 4, !tbaa !42
  %81 = load i32, ptr %8, align 4, !tbaa !42
  %82 = load i32, ptr %8, align 4, !tbaa !42
  %83 = sitofp i32 %82 to double
  %84 = fmul double 1.000000e+02, %83
  %85 = load i32, ptr %7, align 4, !tbaa !42
  %86 = call i32 @Abc_MaxInt(i32 noundef %85, i32 noundef 1)
  %87 = sitofp i32 %86 to double
  %88 = fdiv double %84, %87
  %89 = load i32, ptr %14, align 4, !tbaa !42
  %90 = load i32, ptr %14, align 4, !tbaa !42
  %91 = sitofp i32 %90 to double
  %92 = fmul double 1.000000e+02, %91
  %93 = load i32, ptr %7, align 4, !tbaa !42
  %94 = call i32 @Abc_MaxInt(i32 noundef %93, i32 noundef 1)
  %95 = sitofp i32 %94 to double
  %96 = fdiv double %92, %95
  %97 = load i32, ptr %9, align 4, !tbaa !42
  %98 = load i32, ptr %9, align 4, !tbaa !42
  %99 = sitofp i32 %98 to double
  %100 = fmul double 1.000000e+02, %99
  %101 = load i32, ptr %7, align 4, !tbaa !42
  %102 = call i32 @Abc_MaxInt(i32 noundef %101, i32 noundef 1)
  %103 = sitofp i32 %102 to double
  %104 = fdiv double %100, %103
  %105 = call i32 (ptr, ...) @printf(ptr noundef @.str.2, i32 noundef %80, i32 noundef %81, double noundef %88, i32 noundef %89, double noundef %96, i32 noundef %97, double noundef %104)
  %106 = load i32, ptr %14, align 4, !tbaa !42
  call void @llvm.lifetime.end.p0(i64 84, ptr %16) #11
  call void @llvm.lifetime.end.p0(i64 4, ptr %15) #11
  call void @llvm.lifetime.end.p0(i64 4, ptr %14) #11
  call void @llvm.lifetime.end.p0(i64 4, ptr %13) #11
  call void @llvm.lifetime.end.p0(i64 4, ptr %12) #11
  call void @llvm.lifetime.end.p0(i64 4, ptr %11) #11
  ret i32 %106
}