; Function Attrs: nofree nounwind uwtable
define i32 @Unm_ManPrintPairStats(ptr noundef readonly captures(none) %0, i32 noundef %1, i32 noundef %2, i32 noundef %3, i32 %4) local_unnamed_addr #5 {
  %6 = alloca [21 x i32], align 16
  call void @llvm.lifetime.start.p0(i64 84, ptr nonnull %6) #19
  call void @llvm.memset.p0.i64(ptr noundef nonnull align 16 dereferenceable(84) %6, i8 0, i64 84, i1 false)
  %7 = getelementptr i8, ptr %0, i64 8
  %.val = load ptr, ptr %7, align 8, !tbaa !47
  %8 = getelementptr i8, ptr %.val, i64 4
  %.val.val = load i32, ptr %8, align 4, !tbaa !44
  %.not.not32 = icmp sgt i32 %.val.val, 7
  br i1 %.not.not32, label %.lr.ph, label %._crit_edge

.lr.ph:                                           ; preds = %5
  %9 = lshr i32 %.val.val, 2
  %10 = getelementptr i8, ptr %.val, i64 8
  %.val.i.i = load ptr, ptr %10, align 8, !tbaa !43
  %invariant.gep = getelementptr inbounds nuw i8, ptr %.val.i.i, i64 8
  %wide.trip.count = zext nneg i32 %9 to i64
  br label %11

11:                                               ; preds = %.lr.ph, %11
  %indvars.iv = phi i64 [ 1, %.lr.ph ], [ %indvars.iv.next, %11 ]
  %.035 = phi i32 [ 0, %.lr.ph ], [ %14, %11 ]
  %.02934 = phi i32 [ 0, %.lr.ph ], [ %21, %11 ]
  %gep.idx = shl nsw i64 %indvars.iv, 4
  %gep = getelementptr inbounds nuw i8, ptr %invariant.gep, i64 %gep.idx
  %12 = load i32, ptr %gep, align 4, !tbaa !58
  %13 = tail call noundef range(i32 -2147483648, 21) i32 @llvm.smin.i32(i32 %12, i32 20)
  %14 = add nsw i32 %13, %.035
  %15 = sext i32 %13 to i64
  %16 = getelementptr inbounds [21 x i32], ptr %6, i64 0, i64 %15
  %17 = load i32, ptr %16, align 4, !tbaa !48
  %18 = add nsw i32 %17, 1
  store i32 %18, ptr %16, align 4, !tbaa !48
  %19 = icmp sgt i32 %12, 1
  %20 = zext i1 %19 to i32
  %21 = add nuw nsw i32 %.02934, %20
  %indvars.iv.next = add nuw nsw i64 %indvars.iv, 1
  %exitcond.not = icmp eq i64 %indvars.iv.next, %wide.trip.count
  br i1 %exitcond.not, label %._crit_edge, label %11, !llvm.loop !60

._crit_edge:                                      ; preds = %11, %5
  %.029.lcssa = phi i32 [ 0, %5 ], [ %21, %11 ]
  %.0.lcssa = phi i32 [ 0, %5 ], [ %14, %11 ]
  %puts = tail call i32 @puts(ptr nonnull dereferenceable(1) @str)
  %22 = tail call range(i32 1, -2147483648) i32 @llvm.smax.i32(i32 %.0.lcssa, i32 1)
  %23 = uitofp nneg i32 %22 to double
  br label %24

24:                                               ; preds = %._crit_edge, %36
  %indvars.iv40 = phi i64 [ 0, %._crit_edge ], [ %indvars.iv.next41, %36 ]
  %25 = getelementptr inbounds nuw [21 x i32], ptr %6, i64 0, i64 %indvars.iv40
  %26 = load i32, ptr %25, align 4, !tbaa !48
  %27 = icmp sgt i32 %26, 0
  br i1 %27, label %28, label %36

28:                                               ; preds = %24
  %29 = uitofp nneg i32 %26 to double
  %30 = fmul double %29, 1.000000e+02
  %31 = trunc nuw nsw i64 %indvars.iv40 to i32
  %32 = uitofp nneg i32 %31 to double
  %33 = fmul double %30, %32
  %34 = fdiv double %33, %23
  %35 = tail call i32 (ptr, ...) @printf(ptr noundef nonnull dereferenceable(1) @.str.1, i32 noundef %31, i32 noundef %26, double noundef %34)
  br label %36

36:                                               ; preds = %24, %28
  %indvars.iv.next41 = add nuw nsw i64 %indvars.iv40, 1
  %exitcond43.not = icmp eq i64 %indvars.iv.next41, 21
  br i1 %exitcond43.not, label %37, label %24, !llvm.loop !61

37:                                               ; preds = %36
  %38 = sitofp i32 %2 to double
  %39 = fmul double %38, 1.000000e+02
  %40 = tail call noundef range(i32 1, -2147483648) i32 @llvm.smax.i32(i32 %1, i32 1)
  %41 = uitofp nneg i32 %40 to double
  %42 = fdiv double %39, %41
  %43 = uitofp nneg i32 %.029.lcssa to double
  %44 = fmul double %43, 1.000000e+02
  %45 = fdiv double %44, %41
  %46 = sitofp i32 %3 to double
  %47 = fmul double %46, 1.000000e+02
  %48 = fdiv double %47, %41
  %49 = tail call i32 (ptr, ...) @printf(ptr noundef nonnull dereferenceable(1) @.str.2, i32 noundef %1, i32 noundef %2, double noundef %42, i32 noundef %.029.lcssa, double noundef %45, i32 noundef %3, double noundef %48)
  call void @llvm.lifetime.end.p0(i64 84, ptr nonnull %6) #19
  ret i32 %.029.lcssa
}